; Function Attrs: mustprogress nounwind uwtable
define hidden void @_ZN20ShenandoahBarrierSet16on_thread_createEP6Thread(ptr nocapture nonnull readnone align 8 %0, ptr noundef %1) unnamed_addr #0 align 2 {
  %3 = getelementptr inbounds i8, ptr %1, i64 40
  store i8 0, ptr %3, align 8
  %4 = getelementptr inbounds i8, ptr %1, i64 41
  store i8 0, ptr %4, align 1
  %5 = getelementptr inbounds i8, ptr %1, i64 42
  store i8 0, ptr %5, align 2
  %6 = getelementptr inbounds i8, ptr %1, i64 48
  %7 = load ptr, ptr @_ZN10BarrierSet12_barrier_setE, align 8
  %8 = getelementptr inbounds i8, ptr %7, i64 664
  tail call void @_ZN13SATBMarkQueueC1EP16SATBMarkQueueSet(ptr noundef nonnull align 8 dereferenceable(17) %6, ptr noundef nonnull %8) #12
  %9 = getelementptr inbounds i8, ptr %1, i64 72
  tail call void @llvm.memset.p0.i64(ptr noundef nonnull align 8 dereferenceable(24) %9, i8 0, i64 24, i1 false)
  ret void
}